target datalayout = "e-m:e-p270:32:32-p271:32:32-p272:64:64-i64:64-i128:128-f80:128-n8:16:32:64-S128"
target triple = "x86_64-pc-linux-gnu"

%struct.archive_string = type { ptr, i64, i64 }
%struct.tree = type { ptr, ptr, ptr, ptr, i32, i32, i32, %struct.archive_string, ptr, i64, i32, i32, i32, i32, i32, %struct.stat, %struct.stat, i32, i32, %struct.restore_time, ptr, ptr, i32, i32, i8, i8, ptr, ptr, i32, i32, i32, i32, i32, i32, i64, i64, ptr, i64 }
%struct.stat = type { i64, i64, i64, i32, i32, i32, i32, i64, i64, i64, i64, %struct.timespec, %struct.timespec, %struct.timespec, [3 x i64] }
%struct.timespec = type { i64, i64 }
%struct.restore_time = type { ptr, i64, i64, i64, i64, i32, i32 }
%struct.tree_entry = type { i32, ptr, ptr, %struct.archive_string, i64, i64, i64, i32, i32, i32, %struct.restore_time }

@.str.29 = private unnamed_addr constant [3 x i8] c"..\00", align 1

; Function Attrs: nounwind uwtable
define internal i32 @tree_current_dir_fd(ptr noundef %0) #0 {
  %2 = alloca ptr, align 8
  store ptr %0, ptr %2, align 8
  %3 = load ptr, ptr %2, align 8
  %4 = getelementptr inbounds %struct.tree, ptr %3, i32 0, i32 14
  %5 = load i32, ptr %4, align 8
  ret i32 %5
}

; Function Attrs: nounwind uwtable
define internal i32 @open_on_current_dir(ptr noundef %0, ptr noundef %1, i32 noundef %2) #0 {
  %4 = alloca ptr, align 8
  %5 = alloca ptr, align 8
  %6 = alloca i32, align 4
  store ptr %0, ptr %4, align 8
  store ptr %1, ptr %5, align 8
  store i32 %2, ptr %6, align 4
  %7 = load ptr, ptr %4, align 8
  %8 = call i32 @tree_current_dir_fd(ptr noundef %7)
  %9 = load ptr, ptr %5, align 8
  %10 = load i32, ptr %6, align 4
  %11 = call i32 (i32, ptr, i32, ...) @openat(i32 noundef %8, ptr noundef %9, i32 noundef %10)
  ret i32 %11
}

; Function Attrs: nounwind uwtable
define internal i32 @tree_ascend(ptr noundef %0) #0 {
  %2 = alloca ptr, align 8
  %3 = alloca ptr, align 8
  %4 = alloca i32, align 4
  %5 = alloca i32, align 4
  %6 = alloca i32, align 4
  store ptr %0, ptr %2, align 8
  store i32 0, ptr %5, align 4
  %7 = load ptr, ptr %2, align 8
  %8 = getelementptr inbounds %struct.tree, ptr %7, i32 0, i32 0
  %9 = load ptr, ptr %8, align 8
  store ptr %9, ptr %3, align 8
  %10 = load ptr, ptr %2, align 8
  %11 = getelementptr inbounds %struct.tree, ptr %10, i32 0, i32 14
  %12 = load i32, ptr %11, align 8
  store i32 %12, ptr %6, align 4
  %13 = load ptr, ptr %3, align 8
  %14 = getelementptr inbounds %struct.tree_entry, ptr %13, i32 0, i32 7
  %15 = load i32, ptr %14, align 8
  %16 = and i32 %15, 2
  %17 = icmp ne i32 %16, 0
  br i1 %17, label %18, label %22

18:                                               ; preds = %1
  %19 = load ptr, ptr %3, align 8
  %20 = getelementptr inbounds %struct.tree_entry, ptr %19, i32 0, i32 9
  %21 = load i32, ptr %20, align 8
  store i32 %21, ptr %4, align 4
  br label %26

22:                                               ; preds = %1
  %23 = load ptr, ptr %2, align 8
  %24 = call i32 @open_on_current_dir(ptr noundef %23, ptr noundef @.str.29, i32 noundef 524288)
  store i32 %24, ptr %4, align 4
  %25 = load i32, ptr %4, align 4
  call void @__archive_ensure_cloexec_flag(i32 noundef %25)
  br label %26

26:                                               ; preds = %22, %18
  %27 = load i32, ptr %4, align 4
  %28 = icmp slt i32 %27, 0
  br i1 %28, label %29, label %34

29:                                               ; preds = %26
  %30 = call ptr @__errno_location() #13
  %31 = load i32, ptr %30, align 4
  %32 = load ptr, ptr %2, align 8
  %33 = getelementptr inbounds %struct.tree, ptr %32, i32 0, i32 6
  store i32 %31, ptr %33, align 8
  store i32 -2, ptr %5, align 4
  br label %64

34:                                               ; preds = %26
  %35 = load i32, ptr %4, align 4
  %36 = load ptr, ptr %2, align 8
  %37 = getelementptr inbounds %struct.tree, ptr %36, i32 0, i32 14
  store i32 %35, ptr %37, align 8
  %38 = load ptr, ptr %2, align 8
  %39 = getelementptr inbounds %struct.tree, ptr %38, i32 0, i32 4
  %40 = load i32, ptr %39, align 8
  %41 = and i32 %40, -65
  store i32 %41, ptr %39, align 8
  %42 = load i32, ptr %6, align 4
  %43 = load ptr, ptr %2, align 8
  %44 = load ptr, ptr %3, align 8
  %45 = getelementptr inbounds %struct.tree_entry, ptr %44, i32 0, i32 10
  %46 = call i32 @close_and_restore_time(i32 noundef %42, ptr noundef %43, ptr noundef %45)
  %47 = load ptr, ptr %3, align 8
  %48 = getelementptr inbounds %struct.tree_entry, ptr %47, i32 0, i32 7
  %49 = load i32, ptr %48, align 8
  %50 = and i32 %49, 2
  %51 = icmp ne i32 %50, 0
  br i1 %51, label %52, label %59

52:                                               ; preds = %34
  %53 = load ptr, ptr %2, align 8
  %54 = getelementptr inbounds %struct.tree, ptr %53, i32 0, i32 11
  %55 = load i32, ptr %54, align 4
  %56 = add nsw i32 %55, -1
  store i32 %56, ptr %54, align 4
  %57 = load ptr, ptr %3, align 8
  %58 = getelementptr inbounds %struct.tree_entry, ptr %57, i32 0, i32 9
  store i32 -1, ptr %58, align 8
  br label %59

59:                                               ; preds = %52, %34
  %60 = load ptr, ptr %2, align 8
  %61 = getelementptr inbounds %struct.tree, ptr %60, i32 0, i32 10
  %62 = load i32, ptr %61, align 8
  %63 = add nsw i32 %62, -1
  store i32 %63, ptr %61, align 8
  br label %64

64:                                               ; preds = %59, %29
  %65 = load i32, ptr %5, align 4
  ret i32 %65
}