; Function Attrs: nounwind uwtable
define internal fastcc range(i32 -2, 1) i32 @tree_ascend(ptr noundef captures(none) %0) unnamed_addr #0 {
  %2 = load ptr, ptr %0, align 8
  %3 = getelementptr inbounds nuw i8, ptr %0, i64 104
  %4 = load i32, ptr %3, align 8
  %5 = getelementptr inbounds nuw i8, ptr %2, i64 72
  %6 = load i32, ptr %5, align 8
  %7 = and i32 %6, 2
  %.not = icmp eq i32 %7, 0
  br i1 %.not, label %11, label %8

8:                                                ; preds = %1
  %9 = getelementptr inbounds nuw i8, ptr %2, i64 80
  %10 = load i32, ptr %9, align 8
  br label %13

11:                                               ; preds = %1
  %12 = tail call i32 (i32, ptr, i32, ...) @openat(i32 noundef %4, ptr noundef nonnull @.str.29, i32 noundef 524288) #17
  tail call void @__archive_ensure_cloexec_flag(i32 noundef %12) #17
  br label %13

13:                                               ; preds = %11, %8
  %.0 = phi i32 [ %10, %8 ], [ %12, %11 ]
  %14 = icmp slt i32 %.0, 0
  br i1 %14, label %15, label %19

15:                                               ; preds = %13
  %16 = tail call ptr @__errno_location() #21
  %17 = load i32, ptr %16, align 4
  %18 = getelementptr inbounds nuw i8, ptr %0, i64 40
  store i32 %17, ptr %18, align 8
  br label %35

19:                                               ; preds = %13
  store i32 %.0, ptr %3, align 8
  %20 = getelementptr inbounds nuw i8, ptr %0, i64 32
  %21 = load i32, ptr %20, align 8
  %22 = and i32 %21, -65
  store i32 %22, ptr %20, align 8
  %23 = getelementptr inbounds nuw i8, ptr %2, i64 88
  tail call fastcc void @close_and_restore_time(i32 noundef %4, ptr noundef nonnull %0, ptr noundef nonnull %23)
  %24 = load i32, ptr %5, align 8
  %25 = and i32 %24, 2
  %.not19 = icmp eq i32 %25, 0
  br i1 %.not19, label %31, label %26

26:                                               ; preds = %19
  %27 = getelementptr inbounds nuw i8, ptr %0, i64 92
  %28 = load i32, ptr %27, align 4
  %29 = add nsw i32 %28, -1
  store i32 %29, ptr %27, align 4
  %30 = getelementptr inbounds nuw i8, ptr %2, i64 80
  store i32 -1, ptr %30, align 8
  br label %31

31:                                               ; preds = %26, %19
  %32 = getelementptr inbounds nuw i8, ptr %0, i64 88
  %33 = load i32, ptr %32, align 8
  %34 = add nsw i32 %33, -1
  store i32 %34, ptr %32, align 8
  br label %35

35:                                               ; preds = %31, %15
  %.018 = phi i32 [ -2, %15 ], [ 0, %31 ]
  ret i32 %.018
}